	.text
	.file	"main.ed9e37ee-cgu.0"
	.section	.text._ZN3std10sys_common9backtrace28__rust_begin_short_backtrace17h22b72b8c2013c45cE,"ax",@progbits
	.p2align	4, 0x90
	.type	std::sys_common::backtrace::__rust_begin_short_backtrace::h22b72b8c2013c45c,@function
std::sys_common::backtrace::__rust_begin_short_backtrace::h22b72b8c2013c45c:
.Lfunc_begin0:
	.file	1 "/build/rustc-1.65.0-src/library/std/src/sys_common/backtrace.rs"
	.loc	1 118 0
	.cfi_startproc
	pushq	%rax
	.cfi_def_cfa_offset 16
.Ltmp0:
	.file	2 "/build/rustc-1.65.0-src/library/core/src/ops/function.rs"
	.loc	2 248 5 prologue_end
	callq	*%rdi
.Ltmp1:
	.file	3 "/build/rustc-1.65.0-src/library/core/src/hint.rs"
	.loc	3 223 5
	#APP
	#NO_APP
.Ltmp2:
	.loc	1 128 2
	popq	%rax
	.cfi_def_cfa_offset 8
	retq
.Ltmp3:
.Lfunc_end0:
	.size	std::sys_common::backtrace::__rust_begin_short_backtrace::h22b72b8c2013c45c, .Lfunc_end0-std::sys_common::backtrace::__rust_begin_short_backtrace::h22b72b8c2013c45c
	.cfi_endproc

	.section	.text._ZN3std2rt10lang_start17hec7bce37f31bbd41E,"ax",@progbits
	.hidden	std::rt::lang_start::hec7bce37f31bbd41
	.globl	std::rt::lang_start::hec7bce37f31bbd41
	.p2align	4, 0x90
	.type	std::rt::lang_start::hec7bce37f31bbd41,@function
std::rt::lang_start::hec7bce37f31bbd41:
.Lfunc_begin1:
	.file	4 "/build/rustc-1.65.0-src/library/std/src/rt.rs"
	.loc	4 159 0
	.cfi_startproc
	pushq	%rax
	.cfi_def_cfa_offset 16
	movl	%ecx, %r8d
	movq	%rdx, %rcx
.Ltmp4:
	movq	%rsi, %rdx
.Ltmp5:
	.loc	4 166 10 prologue_end
	movq	%rdi, (%rsp)
	.loc	4 165 17
	leaq	.L__unnamed_1(%rip), %rsi
.Ltmp6:
	.loc	4 0 17 is_stmt 0
	movq	%rsp, %rdi
.Ltmp7:
	.loc	4 165 17
	callq	*std::rt::lang_start_internal::h0b59928b60b7c3a2@GOTPCREL(%rip)
.Ltmp8:
	.loc	4 175 2 is_stmt 1
	popq	%rcx
	.cfi_def_cfa_offset 8
	retq
.Ltmp9:
.Lfunc_end1:
	.size	std::rt::lang_start::hec7bce37f31bbd41, .Lfunc_end1-std::rt::lang_start::hec7bce37f31bbd41
	.cfi_endproc

	.section	".text._ZN3std2rt10lang_start28_$u7b$$u7b$closure$u7d$$u7d$17hfe18453754041a95E","ax",@progbits
	.p2align	4, 0x90
	.type	std::rt::lang_start::{{closure}}::hfe18453754041a95,@function
std::rt::lang_start::{{closure}}::hfe18453754041a95:
.Lfunc_begin2:
	.loc	4 166 0
	.cfi_startproc
	pushq	%rax
	.cfi_def_cfa_offset 16
.Ltmp10:
	.loc	4 166 77 prologue_end
	movq	(%rdi), %rdi
.Ltmp11:
	.loc	4 166 18 is_stmt 0
	callq	std::sys_common::backtrace::__rust_begin_short_backtrace::h22b72b8c2013c45c
	.loc	4 166 100
	xorl	%eax, %eax
	popq	%rcx
	.cfi_def_cfa_offset 8
	retq
.Ltmp12:
.Lfunc_end2:
	.size	std::rt::lang_start::{{closure}}::hfe18453754041a95, .Lfunc_end2-std::rt::lang_start::{{closure}}::hfe18453754041a95
	.cfi_endproc

	.section	".text._ZN4core3ops8function6FnOnce40call_once$u7b$$u7b$vtable.shim$u7d$$u7d$17hd0944ab9ee7fa202E","ax",@progbits
	.p2align	4, 0x90
	.type	core::ops::function::FnOnce::call_once{{vtable.shim}}::hd0944ab9ee7fa202,@function
core::ops::function::FnOnce::call_once{{vtable.shim}}::hd0944ab9ee7fa202:
.Lfunc_begin3:
	.loc	2 248 0 is_stmt 1
	.cfi_startproc
	pushq	%rax
	.cfi_def_cfa_offset 16
.Ltmp13:
	.loc	2 248 5 prologue_end
	movq	(%rdi), %rdi
.Ltmp14:
	.loc	4 166 18
	callq	std::sys_common::backtrace::__rust_begin_short_backtrace::h22b72b8c2013c45c
.Ltmp15:
	.loc	2 248 5
	xorl	%eax, %eax
	popq	%rcx
	.cfi_def_cfa_offset 8
	retq
.Ltmp16:
.Lfunc_end3:
	.size	core::ops::function::FnOnce::call_once{{vtable.shim}}::hd0944ab9ee7fa202, .Lfunc_end3-core::ops::function::FnOnce::call_once{{vtable.shim}}::hd0944ab9ee7fa202
	.cfi_endproc

	.section	".text._ZN4core3ptr85drop_in_place$LT$std..rt..lang_start$LT$$LP$$RP$$GT$..$u7b$$u7b$closure$u7d$$u7d$$GT$17h1d89ef1bc4b12bd0E","ax",@progbits
	.p2align	4, 0x90
	.type	core::ptr::drop_in_place<std::rt::lang_start<()>::{{closure}}>::h1d89ef1bc4b12bd0,@function
core::ptr::drop_in_place<std::rt::lang_start<()>::{{closure}}>::h1d89ef1bc4b12bd0:
.Lfunc_begin4:
	.file	5 "/build/rustc-1.65.0-src/library/core/src/ptr/mod.rs"
	.loc	5 487 0
	.cfi_startproc
	.loc	5 487 1 prologue_end
	retq
.Ltmp17:
.Lfunc_end4:
	.size	core::ptr::drop_in_place<std::rt::lang_start<()>::{{closure}}>::h1d89ef1bc4b12bd0, .Lfunc_end4-core::ptr::drop_in_place<std::rt::lang_start<()>::{{closure}}>::h1d89ef1bc4b12bd0
	.cfi_endproc

	.section	.text._ZN4main4main17h8a621b93f5f3e9cdE,"ax",@progbits
	.p2align	4, 0x90
	.type	main::main::h8a621b93f5f3e9cd,@function
main::main::h8a621b93f5f3e9cd:
.Lfunc_begin5:
	.file	6 "/home/ardfard/code/rustplay/src/main.rs"
	.loc	6 20 0
	.cfi_startproc
	subq	$72, %rsp
	.cfi_def_cfa_offset 80
	movabsq	$4638989091168321536, %rax
.Ltmp18:
	.loc	6 21 13 prologue_end
	movq	%rax, (%rsp)
	movq	%rsp, %rax
.Ltmp19:
	.loc	6 22 5
	movq	%rax, 8(%rsp)
	movq	core::fmt::float::<impl core::fmt::Display for f64>::fmt::h971348a10ef8785a@GOTPCREL(%rip), %rax
	movq	%rax, 16(%rsp)
.Ltmp20:
	.file	7 "/build/rustc-1.65.0-src/library/core/src/fmt/mod.rs"
	.loc	7 398 9
	leaq	.L__unnamed_2(%rip), %rax
.Ltmp21:
	movq	%rax, 24(%rsp)
	movq	$2, 32(%rsp)
	movq	$0, 40(%rsp)
	leaq	8(%rsp), %rax
.Ltmp22:
	movq	%rax, 56(%rsp)
	movq	$1, 64(%rsp)
	leaq	24(%rsp), %rdi
.Ltmp23:
	.loc	6 22 5
	callq	*std::io::stdio::_print::h5344a9ecf76e0cb5@GOTPCREL(%rip)
.Ltmp24:
	.loc	6 23 2
	addq	$72, %rsp
	.cfi_def_cfa_offset 8
	retq
.Ltmp25:
.Lfunc_end5:
	.size	main::main::h8a621b93f5f3e9cd, .Lfunc_end5-main::main::h8a621b93f5f3e9cd
	.cfi_endproc

	.section	.text.main,"ax",@progbits
	.globl	main
	.p2align	4, 0x90
	.type	main,@function
main:
.Lfunc_begin6:
	.cfi_startproc
	pushq	%rax
	.cfi_def_cfa_offset 16
	movq	%rsi, %rcx
	movq	__rustc_debug_gdb_scripts_section__@GOTPCREL(%rip), %rax
	movb	(%rax), %al
	movslq	%edi, %rdx
	leaq	main::main::h8a621b93f5f3e9cd(%rip), %rax
	movq	%rax, (%rsp)
	leaq	.L__unnamed_1(%rip), %rsi
	movq	%rsp, %rdi
	movl	$2, %r8d
	callq	*std::rt::lang_start_internal::h0b59928b60b7c3a2@GOTPCREL(%rip)
	popq	%rcx
	.cfi_def_cfa_offset 8
	retq
.Lfunc_end6:
	.size	main, .Lfunc_end6-main
	.cfi_endproc

	.type	.L__unnamed_1,@object
	.section	.data.rel.ro..L__unnamed_1,"aw",@progbits
	.p2align	3
.L__unnamed_1:
	.quad	core::ptr::drop_in_place<std::rt::lang_start<()>::{{closure}}>::h1d89ef1bc4b12bd0
	.asciz	"\b\000\000\000\000\000\000\000\b\000\000\000\000\000\000"
	.quad	core::ops::function::FnOnce::call_once{{vtable.shim}}::hd0944ab9ee7fa202
	.quad	std::rt::lang_start::{{closure}}::hfe18453754041a95
	.quad	std::rt::lang_start::{{closure}}::hfe18453754041a95
	.size	.L__unnamed_1, 48

	.type	.L__unnamed_3,@object
	.section	.rodata.cst4,"aM",@progbits,4
.L__unnamed_3:
	.ascii	"tst "
	.size	.L__unnamed_3, 4

	.type	.L__unnamed_4,@object
	.section	.rodata..L__unnamed_4,"a",@progbits
.L__unnamed_4:
	.byte	10
	.size	.L__unnamed_4, 1

	.type	.L__unnamed_2,@object
	.section	.data.rel.ro..L__unnamed_2,"aw",@progbits
	.p2align	3
.L__unnamed_2:
	.quad	.L__unnamed_3
	.asciz	"\004\000\000\000\000\000\000"
	.quad	.L__unnamed_4
	.asciz	"\001\000\000\000\000\000\000"
	.size	.L__unnamed_2, 32

	.type	__rustc_debug_gdb_scripts_section__,@object
	.section	.debug_gdb_scripts,"aMS",@progbits,1,unique,1
	.weak	__rustc_debug_gdb_scripts_section__
__rustc_debug_gdb_scripts_section__:
	.asciz	"\001gdb_load_rust_pretty_printers.py"
	.size	__rustc_debug_gdb_scripts_section__, 34

	.section	.data.rel.ro..L__unnamed_1,"aw",@progbits
.Lsec_end0:
	.section	.text._ZN3std10sys_common9backtrace28__rust_begin_short_backtrace17h22b72b8c2013c45cE,"ax",@progbits
.Lsec_end1:
	.section	.text._ZN3std2rt10lang_start17hec7bce37f31bbd41E,"ax",@progbits
.Lsec_end2:
	.section	".text._ZN3std2rt10lang_start28_$u7b$$u7b$closure$u7d$$u7d$17hfe18453754041a95E","ax",@progbits
.Lsec_end3:
	.section	".text._ZN4core3ops8function6FnOnce40call_once$u7b$$u7b$vtable.shim$u7d$$u7d$17hd0944ab9ee7fa202E","ax",@progbits
.Lsec_end4:
	.section	".text._ZN4core3ptr85drop_in_place$LT$std..rt..lang_start$LT$$LP$$RP$$GT$..$u7b$$u7b$closure$u7d$$u7d$$GT$17h1d89ef1bc4b12bd0E","ax",@progbits
.Lsec_end5:
	.section	.text._ZN4main4main17h8a621b93f5f3e9cdE,"ax",@progbits
.Lsec_end6:
	.section	".note.GNU-stack","",@progbits